target datalayout = "e-m:e-p270:32:32-p271:32:32-p272:64:64-i64:64-i128:128-f80:128-n8:16:32:64-S128"
target triple = "x86_64-unknown-linux-gnu"

; Function Attrs: mustprogress uwtable
define void @_ZN3re219ConvertRunesToBytesEbPiiPNSt7__cxx1112basic_stringIcSt11char_traitsIcESaIcEEE(i1 noundef zeroext %latin1, ptr noundef %runes, i32 noundef %nrunes, ptr noundef %bytes) #3 {
entry:
  %latin1.addr = alloca i8, align 1
  %runes.addr = alloca ptr, align 8
  %nrunes.addr = alloca i32, align 4
  %bytes.addr = alloca ptr, align 8
  %i = alloca i32, align 4
  %p = alloca ptr, align 8
  %i5 = alloca i32, align 4
  %frombool = zext i1 %latin1 to i8
  store i8 %frombool, ptr %latin1.addr, align 1
  store ptr %runes, ptr %runes.addr, align 8
  store i32 %nrunes, ptr %nrunes.addr, align 4
  store ptr %bytes, ptr %bytes.addr, align 8
  %0 = load i8, ptr %latin1.addr, align 1
  %tobool = trunc i8 %0 to i1
  br i1 %tobool, label %if.then, label %if.else

if.then:                                          ; preds = %entry
  %1 = load ptr, ptr %bytes.addr, align 8
  %2 = load i32, ptr %nrunes.addr, align 4
  %conv = sext i32 %2 to i64
  call void @_ZNSt7__cxx1112basic_stringIcSt11char_traitsIcESaIcEE6resizeEm(ptr noundef nonnull align 8 dereferenceable(32) %1, i64 noundef %conv)
  store i32 0, ptr %i, align 4
  br label %for.cond

for.cond:                                         ; preds = %for.inc, %if.then
  %3 = load i32, ptr %i, align 4
  %4 = load i32, ptr %nrunes.addr, align 4
  %cmp = icmp slt i32 %3, %4
  br i1 %cmp, label %for.body, label %for.end

for.body:                                         ; preds = %for.cond
  %5 = load ptr, ptr %runes.addr, align 8
  %6 = load i32, ptr %i, align 4
  %idxprom = sext i32 %6 to i64
  %arrayidx = getelementptr inbounds i32, ptr %5, i64 %idxprom
  %7 = load i32, ptr %arrayidx, align 4
  %conv1 = trunc i32 %7 to i8
  %8 = load ptr, ptr %bytes.addr, align 8
  %9 = load i32, ptr %i, align 4
  %conv2 = sext i32 %9 to i64
  %call = call noundef nonnull align 1 dereferenceable(1) ptr @_ZNSt7__cxx1112basic_stringIcSt11char_traitsIcESaIcEEixEm(ptr noundef nonnull align 8 dereferenceable(32) %8, i64 noundef %conv2)
  store i8 %conv1, ptr %call, align 1
  br label %for.inc

for.inc:                                          ; preds = %for.body
  %10 = load i32, ptr %i, align 4
  %inc = add nsw i32 %10, 1
  store i32 %inc, ptr %i, align 4
  br label %for.cond, !llvm.loop !13

for.end:                                          ; preds = %for.cond
  br label %if.end

if.else:                                          ; preds = %entry
  %11 = load ptr, ptr %bytes.addr, align 8
  %12 = load i32, ptr %nrunes.addr, align 4
  %mul = mul nsw i32 %12, 4
  %conv3 = sext i32 %mul to i64
  call void @_ZNSt7__cxx1112basic_stringIcSt11char_traitsIcESaIcEE6resizeEm(ptr noundef nonnull align 8 dereferenceable(32) %11, i64 noundef %conv3)
  %13 = load ptr, ptr %bytes.addr, align 8
  %call4 = call noundef nonnull align 1 dereferenceable(1) ptr @_ZNSt7__cxx1112basic_stringIcSt11char_traitsIcESaIcEEixEm(ptr noundef nonnull align 8 dereferenceable(32) %13, i64 noundef 0)
  store ptr %call4, ptr %p, align 8
  store i32 0, ptr %i5, align 4
  br label %for.cond6

for.cond6:                                        ; preds = %for.inc12, %if.else
  %14 = load i32, ptr %i5, align 4
  %15 = load i32, ptr %nrunes.addr, align 4
  %cmp7 = icmp slt i32 %14, %15
  br i1 %cmp7, label %for.body8, label %for.end14

for.body8:                                        ; preds = %for.cond6
  %16 = load ptr, ptr %p, align 8
  %17 = load ptr, ptr %runes.addr, align 8
  %18 = load i32, ptr %i5, align 4
  %idxprom9 = sext i32 %18 to i64
  %arrayidx10 = getelementptr inbounds i32, ptr %17, i64 %idxprom9
  %call11 = call noundef i32 @_ZN3re210runetocharEPcPKi(ptr noundef %16, ptr noundef %arrayidx10)
  %19 = load ptr, ptr %p, align 8
  %idx.ext = sext i32 %call11 to i64
  %add.ptr = getelementptr inbounds i8, ptr %19, i64 %idx.ext
  store ptr %add.ptr, ptr %p, align 8
  br label %for.inc12

for.inc12:                                        ; preds = %for.body8
  %20 = load i32, ptr %i5, align 4
  %inc13 = add nsw i32 %20, 1
  store i32 %inc13, ptr %i5, align 4
  br label %for.cond6, !llvm.loop !14

for.end14:                                        ; preds = %for.cond6
  %21 = load ptr, ptr %bytes.addr, align 8
  %22 = load ptr, ptr %p, align 8
  %23 = load ptr, ptr %bytes.addr, align 8
  %call15 = call noundef nonnull align 1 dereferenceable(1) ptr @_ZNSt7__cxx1112basic_stringIcSt11char_traitsIcESaIcEEixEm(ptr noundef nonnull align 8 dereferenceable(32) %23, i64 noundef 0)
  %sub.ptr.lhs.cast = ptrtoint ptr %22 to i64
  %sub.ptr.rhs.cast = ptrtoint ptr %call15 to i64
  %sub.ptr.sub = sub i64 %sub.ptr.lhs.cast, %sub.ptr.rhs.cast
  call void @_ZNSt7__cxx1112basic_stringIcSt11char_traitsIcESaIcEE6resizeEm(ptr noundef nonnull align 8 dereferenceable(32) %21, i64 noundef %sub.ptr.sub)
  %24 = load ptr, ptr %bytes.addr, align 8
  call void @_ZNSt7__cxx1112basic_stringIcSt11char_traitsIcESaIcEE13shrink_to_fitEv(ptr noundef nonnull align 8 dereferenceable(32) %24) #16
  br label %if.end

if.end:                                           ; preds = %for.end14, %for.end
  ret void
}