; Function Attrs: mustprogress uwtable
define void @_ZN3re219ConvertRunesToBytesEbPiiPNSt7__cxx1112basic_stringIcSt11char_traitsIcESaIcEEE(i1 noundef zeroext %latin1, ptr noundef %runes, i32 noundef %nrunes, ptr noundef %bytes) local_unnamed_addr #7 {
entry:
  br i1 %latin1, label %if.then, label %if.else

if.then:                                          ; preds = %entry
  %conv = sext i32 %nrunes to i64
  tail call void @_ZNSt7__cxx1112basic_stringIcSt11char_traitsIcESaIcEE6resizeEm(ptr noundef nonnull align 8 dereferenceable(32) %bytes, i64 noundef %conv)
  %cmp21 = icmp sgt i32 %nrunes, 0
  br i1 %cmp21, label %for.body.preheader, label %if.end

for.body.preheader:                               ; preds = %if.then
  %wide.trip.count27 = zext nneg i32 %nrunes to i64
  br label %for.body

for.body:                                         ; preds = %for.body.preheader, %for.body
  %indvars.iv24 = phi i64 [ 0, %for.body.preheader ], [ %indvars.iv.next25, %for.body ]
  %arrayidx = getelementptr inbounds i32, ptr %runes, i64 %indvars.iv24
  %0 = load i32, ptr %arrayidx, align 4
  %conv1 = trunc i32 %0 to i8
  %call = tail call noundef nonnull align 1 dereferenceable(1) ptr @_ZNSt7__cxx1112basic_stringIcSt11char_traitsIcESaIcEEixEm(ptr noundef nonnull align 8 dereferenceable(32) %bytes, i64 noundef %indvars.iv24)
  store i8 %conv1, ptr %call, align 1
  %indvars.iv.next25 = add nuw nsw i64 %indvars.iv24, 1
  %exitcond28.not = icmp eq i64 %indvars.iv.next25, %wide.trip.count27
  br i1 %exitcond28.not, label %if.end, label %for.body, !llvm.loop !25

if.else:                                          ; preds = %entry
  %mul = shl nsw i32 %nrunes, 2
  %conv3 = sext i32 %mul to i64
  tail call void @_ZNSt7__cxx1112basic_stringIcSt11char_traitsIcESaIcEE6resizeEm(ptr noundef nonnull align 8 dereferenceable(32) %bytes, i64 noundef %conv3)
  %call4 = tail call noundef nonnull align 1 dereferenceable(1) ptr @_ZNSt7__cxx1112basic_stringIcSt11char_traitsIcESaIcEEixEm(ptr noundef nonnull align 8 dereferenceable(32) %bytes, i64 noundef 0)
  %cmp718 = icmp sgt i32 %nrunes, 0
  br i1 %cmp718, label %for.body8.preheader, label %for.end14

for.body8.preheader:                              ; preds = %if.else
  %wide.trip.count = zext nneg i32 %nrunes to i64
  br label %for.body8

for.body8:                                        ; preds = %for.body8.preheader, %for.body8
  %indvars.iv = phi i64 [ 0, %for.body8.preheader ], [ %indvars.iv.next, %for.body8 ]
  %p.019 = phi ptr [ %call4, %for.body8.preheader ], [ %add.ptr, %for.body8 ]
  %arrayidx10 = getelementptr inbounds i32, ptr %runes, i64 %indvars.iv
  %call11 = tail call noundef i32 @_ZN3re210runetocharEPcPKi(ptr noundef %p.019, ptr noundef %arrayidx10)
  %idx.ext = sext i32 %call11 to i64
  %add.ptr = getelementptr inbounds i8, ptr %p.019, i64 %idx.ext
  %indvars.iv.next = add nuw nsw i64 %indvars.iv, 1
  %exitcond.not = icmp eq i64 %indvars.iv.next, %wide.trip.count
  br i1 %exitcond.not, label %for.end14, label %for.body8, !llvm.loop !26

for.end14:                                        ; preds = %for.body8, %if.else
  %p.0.lcssa = phi ptr [ %call4, %if.else ], [ %add.ptr, %for.body8 ]
  %call15 = tail call noundef nonnull align 1 dereferenceable(1) ptr @_ZNSt7__cxx1112basic_stringIcSt11char_traitsIcESaIcEEixEm(ptr noundef nonnull align 8 dereferenceable(32) %bytes, i64 noundef 0)
  %sub.ptr.lhs.cast = ptrtoint ptr %p.0.lcssa to i64
  %sub.ptr.rhs.cast = ptrtoint ptr %call15 to i64
  %sub.ptr.sub = sub i64 %sub.ptr.lhs.cast, %sub.ptr.rhs.cast
  tail call void @_ZNSt7__cxx1112basic_stringIcSt11char_traitsIcESaIcEE6resizeEm(ptr noundef nonnull align 8 dereferenceable(32) %bytes, i64 noundef %sub.ptr.sub)
  tail call void @_ZNSt7__cxx1112basic_stringIcSt11char_traitsIcESaIcEE13shrink_to_fitEv(ptr noundef nonnull align 8 dereferenceable(32) %bytes) #25
  br label %if.end

if.end:                                           ; preds = %for.body, %if.then, %for.end14
  ret void
}